target datalayout = "e-m:e-p270:32:32-p271:32:32-p272:64:64-i64:64-i128:128-f80:128-n8:16:32:64-S128"
target triple = "x86_64-unknown-linux-gnu"

@co_tls_my_aiocontext = internal thread_local global ptr null, align 8

; Function Attrs: nounwind sspstrong uwtable
define internal ptr @get_my_aiocontext() #0 {
entry:
  call void asm sideeffect "", "~{dirflag},~{fpsr},~{flags}"() #11, !srcloc !20
  %0 = call align 8 ptr @llvm.threadlocal.address.p0(ptr align 8 @co_tls_my_aiocontext)
  %1 = load ptr, ptr %0, align 8
  ret ptr %1
}

; Function Attrs: nounwind sspstrong uwtable
define dso_local ptr @qemu_get_current_aio_context() #0 {
entry:
  %retval = alloca ptr, align 8
  %ctx = alloca ptr, align 8
  %call = call ptr @get_my_aiocontext()
  store ptr %call, ptr %ctx, align 8
  %0 = load ptr, ptr %ctx, align 8
  %tobool = icmp ne ptr %0, null
  br i1 %tobool, label %if.then, label %if.end

if.then:                                          ; preds = %entry
  %1 = load ptr, ptr %ctx, align 8
  store ptr %1, ptr %retval, align 8
  br label %return

if.end:                                           ; preds = %entry
  %call1 = call zeroext i1 @qemu_mutex_iothread_locked()
  br i1 %call1, label %if.then2, label %if.end4

if.then2:                                         ; preds = %if.end
  %call3 = call ptr @qemu_get_aio_context()
  store ptr %call3, ptr %retval, align 8
  br label %return

if.end4:                                          ; preds = %if.end
  store ptr null, ptr %retval, align 8
  br label %return

return:                                           ; preds = %if.end4, %if.then2, %if.then
  %2 = load ptr, ptr %retval, align 8
  ret ptr %2
}