; Function Attrs: nounwind sspstrong uwtable
define dso_local ptr @qemu_get_current_aio_context() local_unnamed_addr #0 {
entry:
  tail call void asm sideeffect "", "~{dirflag},~{fpsr},~{flags}"() #13, !srcloc !19
  %0 = tail call align 8 ptr @llvm.threadlocal.address.p0(ptr align 8 @co_tls_my_aiocontext)
  %1 = load ptr, ptr %0, align 8
  %tobool.not = icmp eq ptr %1, null
  br i1 %tobool.not, label %if.end, label %return

if.end:                                           ; preds = %entry
  %call1 = tail call zeroext i1 @qemu_mutex_iothread_locked() #13
  br i1 %call1, label %if.then2, label %return

if.then2:                                         ; preds = %if.end
  %call3 = tail call ptr @qemu_get_aio_context() #13
  br label %return

return:                                           ; preds = %if.end, %entry, %if.then2
  %retval.0 = phi ptr [ %call3, %if.then2 ], [ %1, %entry ], [ null, %if.end ]
  ret ptr %retval.0
}